; Function Attrs: mustprogress uwtable
define dso_local noundef nonnull align 8 dereferenceable(136) ptr @_ZNK4Luau18TestConfigResolver9getConfigERKNSt7__cxx1112basic_stringIcSt11char_traitsIcESaIcEEE(ptr noundef nonnull align 8 dereferenceable(200) %0, ptr noundef nonnull align 8 dereferenceable(32) %1) unnamed_addr #6 align 2 {
  %3 = getelementptr inbounds nuw i8, ptr %0, i64 144
  %4 = tail call ptr @_ZNKSt10_HashtableINSt7__cxx1112basic_stringIcSt11char_traitsIcESaIcEEESt4pairIKS5_N4Luau6ConfigEESaISA_ENSt8__detail10_Select1stESt8equal_toIS5_ESt4hashIS5_ENSC_18_Mod_range_hashingENSC_20_Default_ranged_hashENSC_20_Prime_rehash_policyENSC_17_Hashtable_traitsILb1ELb0ELb1EEEE4findERS7_(ptr noundef nonnull align 8 dereferenceable(56) %3, ptr noundef nonnull align 8 dereferenceable(32) %1)
  %.not = icmp eq ptr %4, null
  %5 = getelementptr inbounds nuw i8, ptr %4, i64 40
  %6 = getelementptr inbounds nuw i8, ptr %0, i64 8
  %.0 = select i1 %.not, ptr %6, ptr %5
  ret ptr %.0
}